target datalayout = "e-m:e-p270:32:32-p271:32:32-p272:64:64-i64:64-i128:128-f80:128-n8:16:32:64-S128"
target triple = "x86_64-pc-linux-gnu"

; Function Attrs: nounwind uwtable
define ptr @Aig_Oper(ptr noundef %0, ptr noundef %1, ptr noundef %2, i32 noundef %3) #0 {
  %5 = alloca ptr, align 8
  %6 = alloca ptr, align 8
  %7 = alloca ptr, align 8
  %8 = alloca ptr, align 8
  %9 = alloca i32, align 4
  store ptr %0, ptr %6, align 8, !tbaa !3
  store ptr %1, ptr %7, align 8, !tbaa !25
  store ptr %2, ptr %8, align 8, !tbaa !25
  store i32 %3, ptr %9, align 4, !tbaa !8
  %10 = load i32, ptr %9, align 4, !tbaa !8
  %11 = icmp eq i32 %10, 5
  br i1 %11, label %12, label %17

12:                                               ; preds = %4
  %13 = load ptr, ptr %6, align 8, !tbaa !3
  %14 = load ptr, ptr %7, align 8, !tbaa !25
  %15 = load ptr, ptr %8, align 8, !tbaa !25
  %16 = call ptr @Aig_And(ptr noundef %13, ptr noundef %14, ptr noundef %15)
  store ptr %16, ptr %5, align 8
  br label %26

17:                                               ; preds = %4
  %18 = load i32, ptr %9, align 4, !tbaa !8
  %19 = icmp eq i32 %18, 6
  br i1 %19, label %20, label %25

20:                                               ; preds = %17
  %21 = load ptr, ptr %6, align 8, !tbaa !3
  %22 = load ptr, ptr %7, align 8, !tbaa !25
  %23 = load ptr, ptr %8, align 8, !tbaa !25
  %24 = call ptr @Aig_Exor(ptr noundef %21, ptr noundef %22, ptr noundef %23)
  store ptr %24, ptr %5, align 8
  br label %26

25:                                               ; preds = %17
  store ptr null, ptr %5, align 8
  br label %26

26:                                               ; preds = %25, %20, %12
  %27 = load ptr, ptr %5, align 8
  ret ptr %27
}

; Function Attrs: nounwind uwtable
define ptr @Aig_Multi_rec(ptr noundef %0, ptr noundef %1, i32 noundef %2, i32 noundef %3) #0 {
  %5 = alloca ptr, align 8
  %6 = alloca ptr, align 8
  %7 = alloca ptr, align 8
  %8 = alloca i32, align 4
  %9 = alloca i32, align 4
  %10 = alloca ptr, align 8
  %11 = alloca ptr, align 8
  %12 = alloca i32, align 4
  store ptr %0, ptr %6, align 8, !tbaa !3
  store ptr %1, ptr %7, align 8, !tbaa !31
  store i32 %2, ptr %8, align 4, !tbaa !8
  store i32 %3, ptr %9, align 4, !tbaa !8
  call void @llvm.lifetime.start.p0(i64 8, ptr %10) #7
  call void @llvm.lifetime.start.p0(i64 8, ptr %11) #7
  %13 = load i32, ptr %8, align 4, !tbaa !8
  %14 = icmp eq i32 %13, 1
  br i1 %14, label %15, label %19

15:                                               ; preds = %4
  %16 = load ptr, ptr %7, align 8, !tbaa !31
  %17 = getelementptr inbounds ptr, ptr %16, i64 0
  %18 = load ptr, ptr %17, align 8, !tbaa !25
  store ptr %18, ptr %5, align 8
  store i32 1, ptr %12, align 4
  br label %43

19:                                               ; preds = %4
  %20 = load ptr, ptr %6, align 8, !tbaa !3
  %21 = load ptr, ptr %7, align 8, !tbaa !31
  %22 = load i32, ptr %8, align 4, !tbaa !8
  %23 = sdiv i32 %22, 2
  %24 = load i32, ptr %9, align 4, !tbaa !8
  %25 = call ptr @Aig_Multi_rec(ptr noundef %20, ptr noundef %21, i32 noundef %23, i32 noundef %24)
  store ptr %25, ptr %10, align 8, !tbaa !25
  %26 = load ptr, ptr %6, align 8, !tbaa !3
  %27 = load ptr, ptr %7, align 8, !tbaa !31
  %28 = load i32, ptr %8, align 4, !tbaa !8
  %29 = sdiv i32 %28, 2
  %30 = sext i32 %29 to i64
  %31 = getelementptr inbounds ptr, ptr %27, i64 %30
  %32 = load i32, ptr %8, align 4, !tbaa !8
  %33 = load i32, ptr %8, align 4, !tbaa !8
  %34 = sdiv i32 %33, 2
  %35 = sub nsw i32 %32, %34
  %36 = load i32, ptr %9, align 4, !tbaa !8
  %37 = call ptr @Aig_Multi_rec(ptr noundef %26, ptr noundef %31, i32 noundef %35, i32 noundef %36)
  store ptr %37, ptr %11, align 8, !tbaa !25
  %38 = load ptr, ptr %6, align 8, !tbaa !3
  %39 = load ptr, ptr %10, align 8, !tbaa !25
  %40 = load ptr, ptr %11, align 8, !tbaa !25
  %41 = load i32, ptr %9, align 4, !tbaa !8
  %42 = call ptr @Aig_Oper(ptr noundef %38, ptr noundef %39, ptr noundef %40, i32 noundef %41)
  store ptr %42, ptr %5, align 8
  store i32 1, ptr %12, align 4
  br label %43

43:                                               ; preds = %19, %15
  call void @llvm.lifetime.end.p0(i64 8, ptr %11) #7
  call void @llvm.lifetime.end.p0(i64 8, ptr %10) #7
  %44 = load ptr, ptr %5, align 8
  ret ptr %44
}