; Function Attrs: nounwind uwtable
define ptr @Aig_Multi_rec(ptr noundef %0, ptr noundef %1, i32 noundef %2, i32 noundef %3) local_unnamed_addr #0 {
  %5 = icmp eq i32 %2, 1
  br i1 %5, label %6, label %8

6:                                                ; preds = %4
  %7 = load ptr, ptr %1, align 8, !tbaa !33
  br label %Aig_Oper.exit

8:                                                ; preds = %4
  %9 = sdiv i32 %2, 2
  %10 = tail call ptr @Aig_Multi_rec(ptr noundef %0, ptr noundef %1, i32 noundef %9, i32 noundef %3)
  %11 = sext i32 %9 to i64
  %12 = getelementptr inbounds ptr, ptr %1, i64 %11
  %13 = sub nsw i32 %2, %9
  %14 = tail call ptr @Aig_Multi_rec(ptr noundef %0, ptr noundef %12, i32 noundef %13, i32 noundef %3)
  switch i32 %3, label %Aig_Oper.exit [
    i32 5, label %15
    i32 6, label %17
  ]

15:                                               ; preds = %8
  %16 = tail call ptr @Aig_And(ptr noundef %0, ptr noundef %10, ptr noundef %14)
  br label %Aig_Oper.exit

17:                                               ; preds = %8
  %18 = tail call ptr @Aig_Exor(ptr noundef %0, ptr noundef %10, ptr noundef %14)
  br label %Aig_Oper.exit

Aig_Oper.exit:                                    ; preds = %17, %15, %8, %6
  %.0 = phi ptr [ %7, %6 ], [ %16, %15 ], [ %18, %17 ], [ null, %8 ]
  ret ptr %.0
}